target datalayout = "e-m:e-p270:32:32-p271:32:32-p272:64:64-i64:64-i128:128-f80:128-n8:16:32:64-S128"
target triple = "x86_64-pc-linux-gnu"

%struct.PJconsts = type <{ ptr, ptr, ptr, ptr, ptr, ptr, ptr, ptr, ptr, ptr, ptr, ptr, i32, [4 x i8], ptr, ptr, ptr, ptr, ptr, ptr, ptr, ptr, double, double, double, double, double, double, double, double, double, double, double, double, double, double, double, double, double, double, double, double, double, double, i32, i32, i32, i32, i32, i32, i32, i32, i32, i32, i32, [4 x i8], ptr, ptr, ptr, ptr, ptr, ptr, double, double, double, double, double, double, double, double, double, double, double, i32, [4 x i8], [7 x double], i32, [4 x i8], ptr, ptr, double, double, i32, [4 x i8], %"class.std::shared_ptr", i8, [7 x i8], double, i8, [7 x i8], %"class.std::__cxx11::basic_string", %"class.std::__cxx11::basic_string", %"class.std::__cxx11::basic_string", i8, [7 x i8], %"class.std::vector", i32, [4 x i8], %"class.std::vector.3", i32, i8, i8, i8, i8 }>
%"class.std::shared_ptr" = type { %"class.std::__shared_ptr" }
%"class.std::__shared_ptr" = type { ptr, %"class.std::__shared_count" }
%"class.std::__shared_count" = type { ptr }
%"class.std::__cxx11::basic_string" = type { %"struct.std::__cxx11::basic_string<char>::_Alloc_hider", i64, %union.anon }
%"struct.std::__cxx11::basic_string<char>::_Alloc_hider" = type { ptr }
%union.anon = type { i64, [8 x i8] }
%"class.std::vector" = type { %"struct.std::_Vector_base" }
%"struct.std::_Vector_base" = type { %"struct.std::_Vector_base<osgeo::proj::operation::GridDescription, std::allocator<osgeo::proj::operation::GridDescription>>::_Vector_impl" }
%"struct.std::_Vector_base<osgeo::proj::operation::GridDescription, std::allocator<osgeo::proj::operation::GridDescription>>::_Vector_impl" = type { %"struct.std::_Vector_base<osgeo::proj::operation::GridDescription, std::allocator<osgeo::proj::operation::GridDescription>>::_Vector_impl_data" }
%"struct.std::_Vector_base<osgeo::proj::operation::GridDescription, std::allocator<osgeo::proj::operation::GridDescription>>::_Vector_impl_data" = type { ptr, ptr, ptr }
%"class.std::vector.3" = type { %"struct.std::_Vector_base.4" }
%"struct.std::_Vector_base.4" = type { %"struct.std::_Vector_base<PJCoordOperation, std::allocator<PJCoordOperation>>::_Vector_impl" }
%"struct.std::_Vector_base<PJCoordOperation, std::allocator<PJCoordOperation>>::_Vector_impl" = type { %"struct.std::_Vector_base<PJCoordOperation, std::allocator<PJCoordOperation>>::_Vector_impl_data" }
%"struct.std::_Vector_base<PJCoordOperation, std::allocator<PJCoordOperation>>::_Vector_impl_data" = type { ptr, ptr, ptr }
%"struct.(anonymous namespace)::pj_gstmerc_data" = type { double, double, double, double, double, double, double }
%struct.PJ_LP = type { double, double }
%struct.PJ_XY = type { double, double }

; Function Attrs: mustprogress uwtable
define internal { double, double } @_ZL17gstmerc_s_forward5PJ_LPP8PJconsts(double %0, double %1, ptr noundef %2) #0 {
  %4 = alloca %struct.PJ_XY, align 8
  %5 = alloca %struct.PJ_LP, align 8
  %6 = alloca ptr, align 8
  %7 = alloca ptr, align 8
  %8 = alloca double, align 8
  %9 = alloca double, align 8
  %10 = alloca double, align 8
  %11 = alloca double, align 8
  %12 = getelementptr inbounds { double, double }, ptr %5, i32 0, i32 0
  store double %0, ptr %12, align 8
  %13 = getelementptr inbounds { double, double }, ptr %5, i32 0, i32 1
  store double %1, ptr %13, align 8
  store ptr %2, ptr %6, align 8
  call void @llvm.memset.p0.i64(ptr align 8 %4, i8 0, i64 16, i1 false)
  %14 = load ptr, ptr %6, align 8
  %15 = getelementptr inbounds %struct.PJconsts, ptr %14, i32 0, i32 11
  %16 = load ptr, ptr %15, align 8
  store ptr %16, ptr %7, align 8
  %17 = load ptr, ptr %7, align 8
  %18 = getelementptr inbounds %"struct.(anonymous namespace)::pj_gstmerc_data", ptr %17, i32 0, i32 3
  %19 = load double, ptr %18, align 8
  %20 = getelementptr inbounds %struct.PJ_LP, ptr %5, i32 0, i32 0
  %21 = load double, ptr %20, align 8
  %22 = fmul double %19, %21
  store double %22, ptr %8, align 8
  %23 = load ptr, ptr %7, align 8
  %24 = getelementptr inbounds %"struct.(anonymous namespace)::pj_gstmerc_data", ptr %23, i32 0, i32 2
  %25 = load double, ptr %24, align 8
  %26 = load ptr, ptr %7, align 8
  %27 = getelementptr inbounds %"struct.(anonymous namespace)::pj_gstmerc_data", ptr %26, i32 0, i32 3
  %28 = load double, ptr %27, align 8
  %29 = getelementptr inbounds %struct.PJ_LP, ptr %5, i32 0, i32 1
  %30 = load double, ptr %29, align 8
  %31 = fneg double %30
  %32 = getelementptr inbounds %struct.PJ_LP, ptr %5, i32 0, i32 1
  %33 = load double, ptr %32, align 8
  %34 = call double @sin(double noundef %33) #7
  %35 = fneg double %34
  %36 = load ptr, ptr %6, align 8
  %37 = getelementptr inbounds %struct.PJconsts, ptr %36, i32 0, i32 27
  %38 = load double, ptr %37, align 8
  %39 = call noundef double @_Z7pj_tsfnddd(double noundef %31, double noundef %35, double noundef %38)
  %40 = call double @log(double noundef %39) #7
  %41 = call double @llvm.fmuladd.f64(double %28, double %40, double %25)
  store double %41, ptr %9, align 8
  %42 = load double, ptr %8, align 8
  %43 = call double @sin(double noundef %42) #7
  %44 = load double, ptr %9, align 8
  %45 = call double @cosh(double noundef %44) #7
  %46 = fdiv double %43, %45
  store double %46, ptr %10, align 8
  %47 = load double, ptr %10, align 8
  %48 = call double @asin(double noundef %47) #7
  %49 = fneg double %48
  %50 = load double, ptr %10, align 8
  %51 = fneg double %50
  %52 = call noundef double @_Z7pj_tsfnddd(double noundef %49, double noundef %51, double noundef 0.000000e+00)
  %53 = call double @log(double noundef %52) #7
  store double %53, ptr %11, align 8
  %54 = load ptr, ptr %7, align 8
  %55 = getelementptr inbounds %"struct.(anonymous namespace)::pj_gstmerc_data", ptr %54, i32 0, i32 5
  %56 = load double, ptr %55, align 8
  %57 = load ptr, ptr %7, align 8
  %58 = getelementptr inbounds %"struct.(anonymous namespace)::pj_gstmerc_data", ptr %57, i32 0, i32 4
  %59 = load double, ptr %58, align 8
  %60 = load double, ptr %11, align 8
  %61 = call double @llvm.fmuladd.f64(double %59, double %60, double %56)
  %62 = load ptr, ptr %6, align 8
  %63 = getelementptr inbounds %struct.PJconsts, ptr %62, i32 0, i32 24
  %64 = load double, ptr %63, align 8
  %65 = fmul double %61, %64
  %66 = getelementptr inbounds %struct.PJ_XY, ptr %4, i32 0, i32 0
  store double %65, ptr %66, align 8
  %67 = load ptr, ptr %7, align 8
  %68 = getelementptr inbounds %"struct.(anonymous namespace)::pj_gstmerc_data", ptr %67, i32 0, i32 6
  %69 = load double, ptr %68, align 8
  %70 = load ptr, ptr %7, align 8
  %71 = getelementptr inbounds %"struct.(anonymous namespace)::pj_gstmerc_data", ptr %70, i32 0, i32 4
  %72 = load double, ptr %71, align 8
  %73 = load double, ptr %9, align 8
  %74 = call double @sinh(double noundef %73) #7
  %75 = load double, ptr %8, align 8
  %76 = call double @cos(double noundef %75) #7
  %77 = fdiv double %74, %76
  %78 = call double @atan(double noundef %77) #7
  %79 = call double @llvm.fmuladd.f64(double %72, double %78, double %69)
  %80 = load ptr, ptr %6, align 8
  %81 = getelementptr inbounds %struct.PJconsts, ptr %80, i32 0, i32 24
  %82 = load double, ptr %81, align 8
  %83 = fmul double %79, %82
  %84 = getelementptr inbounds %struct.PJ_XY, ptr %4, i32 0, i32 1
  store double %83, ptr %84, align 8
  %85 = load { double, double }, ptr %4, align 8
  ret { double, double } %85
}