; Function Attrs: mustprogress uwtable
define internal { double, double } @_ZL17gstmerc_s_forward5PJ_LPP8PJconsts(double %0, double %1, ptr nocapture noundef readonly %2) #0 {
  %4 = getelementptr inbounds i8, ptr %2, i64 88
  %5 = load ptr, ptr %4, align 8
  %6 = getelementptr inbounds i8, ptr %5, i64 24
  %7 = load double, ptr %6, align 8
  %8 = fmul double %7, %0
  %9 = getelementptr inbounds i8, ptr %5, i64 16
  %10 = load double, ptr %9, align 8
  %11 = fneg double %1
  %12 = tail call double @sin(double noundef %1) #7
  %13 = fneg double %12
  %14 = getelementptr inbounds i8, ptr %2, i64 208
  %15 = load double, ptr %14, align 8
  %16 = tail call noundef double @_Z7pj_tsfnddd(double noundef %11, double noundef %13, double noundef %15)
  %17 = tail call double @log(double noundef %16) #7
  %18 = tail call double @llvm.fmuladd.f64(double %7, double %17, double %10)
  %19 = tail call double @sin(double noundef %8) #7
  %20 = tail call double @cosh(double noundef %18) #7
  %21 = fdiv double %19, %20
  %22 = tail call double @asin(double noundef %21) #7
  %23 = fneg double %22
  %24 = fneg double %21
  %25 = tail call noundef double @_Z7pj_tsfnddd(double noundef %23, double noundef %24, double noundef 0.000000e+00)
  %26 = tail call double @log(double noundef %25) #7
  %27 = getelementptr inbounds i8, ptr %5, i64 40
  %28 = getelementptr inbounds i8, ptr %5, i64 32
  %29 = load double, ptr %28, align 8
  %30 = getelementptr inbounds i8, ptr %2, i64 184
  %31 = load double, ptr %30, align 8
  %32 = load <2 x double>, ptr %27, align 8
  %33 = tail call double @sinh(double noundef %18) #7
  %34 = tail call double @cos(double noundef %8) #7
  %35 = fdiv double %33, %34
  %36 = tail call double @atan(double noundef %35) #7
  %37 = insertelement <2 x double> poison, double %29, i64 0
  %38 = shufflevector <2 x double> %37, <2 x double> poison, <2 x i32> zeroinitializer
  %39 = insertelement <2 x double> poison, double %26, i64 0
  %40 = insertelement <2 x double> %39, double %36, i64 1
  %41 = tail call <2 x double> @llvm.fmuladd.v2f64(<2 x double> %38, <2 x double> %40, <2 x double> %32)
  %42 = load double, ptr %30, align 8
  %43 = insertelement <2 x double> poison, double %31, i64 0
  %44 = insertelement <2 x double> %43, double %42, i64 1
  %45 = fmul <2 x double> %41, %44
  %46 = extractelement <2 x double> %45, i64 0
  %.fca.0.insert = insertvalue { double, double } poison, double %46, 0
  %47 = extractelement <2 x double> %45, i64 1
  %.fca.1.insert = insertvalue { double, double } %.fca.0.insert, double %47, 1
  ret { double, double } %.fca.1.insert
}